; Function Attrs: mustprogress uwtable
define void @_ZN6icu_7520DecimalFormatSymbolsC2ERKNS_6LocaleER10UErrorCode(ptr noundef nonnull align 8 dereferenceable(2883) %this, ptr noundef nonnull align 8 dereferenceable(217) %loc, ptr noundef nonnull align 4 dereferenceable(4) %status) unnamed_addr #1 align 2 personality ptr @__gxx_personality_v0 {
entry:
  store ptr getelementptr inbounds ({ [5 x ptr] }, ptr @_ZTVN6icu_7520DecimalFormatSymbolsE, i64 0, i32 0, i64 2), ptr %this, align 8
  br label %invoke.cont

invoke.cont:                                      ; preds = %entry, %invoke.cont
  %arrayctor.cur.idx = phi i64 [ 8, %entry ], [ %arrayctor.cur.add, %invoke.cont ]
  %arrayctor.cur.ptr.ptr = getelementptr inbounds i8, ptr %this, i64 %arrayctor.cur.idx
  store ptr getelementptr inbounds ({ [13 x ptr] }, ptr @_ZTVN6icu_7513UnicodeStringE, i64 0, i32 0, i64 2), ptr %arrayctor.cur.ptr.ptr, align 8
  %fUnion2.i = getelementptr inbounds i8, ptr %arrayctor.cur.ptr.ptr, i64 8
  store i16 2, ptr %fUnion2.i, align 8
  %arrayctor.cur.add = add nuw nsw i64 %arrayctor.cur.idx, 64
  %arrayctor.done = icmp eq i64 %arrayctor.cur.add, 1864
  br i1 %arrayctor.done, label %invoke.cont4, label %invoke.cont

invoke.cont4:                                     ; preds = %invoke.cont
  %fNoSymbol = getelementptr inbounds i8, ptr %this, i64 1864
  store ptr getelementptr inbounds ({ [13 x ptr] }, ptr @_ZTVN6icu_7513UnicodeStringE, i64 0, i32 0, i64 2), ptr %fNoSymbol, align 8
  %fUnion2.i6 = getelementptr inbounds i8, ptr %this, i64 1872
  store i16 2, ptr %fUnion2.i6, align 8
  %locale = getelementptr inbounds i8, ptr %this, i64 1936
  invoke void @_ZN6icu_756LocaleC1ERKS0_(ptr noundef nonnull align 8 dereferenceable(217) %locale, ptr noundef nonnull align 8 dereferenceable(217) %loc)
          to label %invoke.cont6 unwind label %lpad5

invoke.cont6:                                     ; preds = %invoke.cont4
  %currPattern = getelementptr inbounds i8, ptr %this, i64 2480
  store ptr null, ptr %currPattern, align 8
  br label %invoke.cont12

invoke.cont12:                                    ; preds = %invoke.cont6, %invoke.cont12
  %arrayctor.cur10.idx = phi i64 [ 2488, %invoke.cont6 ], [ %arrayctor.cur10.add, %invoke.cont12 ]
  %arrayctor.cur10.ptr.ptr = getelementptr inbounds i8, ptr %this, i64 %arrayctor.cur10.idx
  store ptr getelementptr inbounds ({ [13 x ptr] }, ptr @_ZTVN6icu_7513UnicodeStringE, i64 0, i32 0, i64 2), ptr %arrayctor.cur10.ptr.ptr, align 8
  %fUnion2.i7 = getelementptr inbounds i8, ptr %arrayctor.cur10.ptr.ptr, i64 8
  store i16 2, ptr %fUnion2.i7, align 8
  %arrayctor.cur10.add = add nuw nsw i64 %arrayctor.cur10.idx, 64
  %arrayctor.done20 = icmp eq i64 %arrayctor.cur10.add, 2680
  br i1 %arrayctor.done20, label %invoke.cont27, label %invoke.cont12

invoke.cont27:                                    ; preds = %invoke.cont12, %invoke.cont27
  %arrayctor.cur25.idx = phi i64 [ %arrayctor.cur25.add, %invoke.cont27 ], [ 2680, %invoke.cont12 ]
  %arrayctor.cur25.ptr.ptr = getelementptr inbounds i8, ptr %this, i64 %arrayctor.cur25.idx
  store ptr getelementptr inbounds ({ [13 x ptr] }, ptr @_ZTVN6icu_7513UnicodeStringE, i64 0, i32 0, i64 2), ptr %arrayctor.cur25.ptr.ptr, align 8
  %fUnion2.i8 = getelementptr inbounds i8, ptr %arrayctor.cur25.ptr.ptr, i64 8
  store i16 2, ptr %fUnion2.i8, align 8
  %arrayctor.cur25.add = add nuw nsw i64 %arrayctor.cur25.idx, 64
  %arrayctor.done35 = icmp eq i64 %arrayctor.cur25.add, 2872
  br i1 %arrayctor.done35, label %arrayinit.body.preheader, label %invoke.cont27

arrayinit.body.preheader:                         ; preds = %invoke.cont27
  %scevgep = getelementptr inbounds i8, ptr %this, i64 2874
  tail call void @llvm.memset.p0.i64(ptr noundef nonnull align 2 dereferenceable(9) %scevgep, i8 0, i64 9, i1 false)
  invoke void @_ZN6icu_7520DecimalFormatSymbols10initializeERKNS_6LocaleER10UErrorCodeaPKNS_15NumberingSystemE(ptr noundef nonnull align 8 dereferenceable(2883) %this, ptr noundef nonnull align 8 dereferenceable(217) %locale, ptr noundef nonnull align 4 dereferenceable(4) %status, i8 noundef signext 0, ptr noundef null)
          to label %invoke.cont40 unwind label %lpad39

invoke.cont40:                                    ; preds = %arrayinit.body.preheader
  ret void

lpad5:                                            ; preds = %invoke.cont4
  %0 = landingpad { ptr, i32 }
          cleanup
  br label %ehcleanup54

lpad39:                                           ; preds = %arrayinit.body.preheader
  %1 = landingpad { ptr, i32 }
          cleanup
  br label %arraydestroy.body42

arraydestroy.body42:                              ; preds = %arraydestroy.body42, %lpad39
  %arraydestroy.elementPast43.idx = phi i64 [ 2872, %lpad39 ], [ %arraydestroy.elementPast43.add, %arraydestroy.body42 ]
  %arraydestroy.elementPast43.add = add nsw i64 %arraydestroy.elementPast43.idx, -64
  %arraydestroy.element44.ptr = getelementptr inbounds i8, ptr %this, i64 %arraydestroy.elementPast43.add
  tail call void @_ZN6icu_7513UnicodeStringD1Ev(ptr noundef nonnull align 8 dereferenceable(64) %arraydestroy.element44.ptr) #15
  %arraydestroy.done45 = icmp eq i64 %arraydestroy.elementPast43.add, 2680
  br i1 %arraydestroy.done45, label %arraydestroy.body48, label %arraydestroy.body42

arraydestroy.body48:                              ; preds = %arraydestroy.body42, %arraydestroy.body48
  %arraydestroy.elementPast49.idx = phi i64 [ %arraydestroy.elementPast49.add, %arraydestroy.body48 ], [ 2680, %arraydestroy.body42 ]
  %arraydestroy.elementPast49.add = add nsw i64 %arraydestroy.elementPast49.idx, -64
  %arraydestroy.element50.ptr = getelementptr inbounds i8, ptr %this, i64 %arraydestroy.elementPast49.add
  tail call void @_ZN6icu_7513UnicodeStringD1Ev(ptr noundef nonnull align 8 dereferenceable(64) %arraydestroy.element50.ptr) #15
  %arraydestroy.done51 = icmp eq i64 %arraydestroy.elementPast49.add, 2488
  br i1 %arraydestroy.done51, label %ehcleanup53, label %arraydestroy.body48

ehcleanup53:                                      ; preds = %arraydestroy.body48
  tail call void @_ZN6icu_756LocaleD1Ev(ptr noundef nonnull align 8 dereferenceable(217) %locale) #15
  br label %ehcleanup54

ehcleanup54:                                      ; preds = %ehcleanup53, %lpad5
  %.pn.pn.pn = phi { ptr, i32 } [ %1, %ehcleanup53 ], [ %0, %lpad5 ]
  tail call void @_ZN6icu_7513UnicodeStringD1Ev(ptr noundef nonnull align 8 dereferenceable(64) %fNoSymbol) #15
  br label %arraydestroy.body57

arraydestroy.body57:                              ; preds = %arraydestroy.body57, %ehcleanup54
  %arraydestroy.elementPast58.idx = phi i64 [ 1864, %ehcleanup54 ], [ %arraydestroy.elementPast58.add, %arraydestroy.body57 ]
  %arraydestroy.elementPast58.add = add nsw i64 %arraydestroy.elementPast58.idx, -64
  %arraydestroy.element59.ptr = getelementptr inbounds i8, ptr %this, i64 %arraydestroy.elementPast58.add
  tail call void @_ZN6icu_7513UnicodeStringD1Ev(ptr noundef nonnull align 8 dereferenceable(64) %arraydestroy.element59.ptr) #15
  %arraydestroy.done60 = icmp eq i64 %arraydestroy.elementPast58.add, 8
  br i1 %arraydestroy.done60, label %ehcleanup62, label %arraydestroy.body57

ehcleanup62:                                      ; preds = %arraydestroy.body57
  tail call void @_ZN6icu_757UObjectD2Ev(ptr noundef nonnull align 8 dereferenceable(8) %this) #15
  resume { ptr, i32 } %.pn.pn.pn
}